target datalayout = "e-m:e-p270:32:32-p271:32:32-p272:64:64-i64:64-i128:128-f80:128-n8:16:32:64-S128"
target triple = "x86_64-pc-linux-gnu"

%struct.asn1_string_st = type { i32, i32, ptr, i64 }

@.str = private unnamed_addr constant [123 x i8] c"generated/home/dtcxzyw/WorkSpace/Projects/compilers/llvm-opt-benchmark/bench/libquic/libquic/boringssl/crypto/asn1/a_int.c\00", align 1

; Function Attrs: nounwind uwtable
define hidden ptr @d2i_ASN1_UINTEGER(ptr noundef %0, ptr noundef %1, i64 noundef %2) #0 {
  %4 = alloca ptr, align 8
  %5 = alloca ptr, align 8
  %6 = alloca ptr, align 8
  %7 = alloca i64, align 8
  %8 = alloca ptr, align 8
  %9 = alloca ptr, align 8
  %10 = alloca ptr, align 8
  %11 = alloca i64, align 8
  %12 = alloca i32, align 4
  %13 = alloca i32, align 4
  %14 = alloca i32, align 4
  %15 = alloca i32, align 4
  %16 = alloca i32, align 4
  store ptr %0, ptr %5, align 8, !tbaa !27
  store ptr %1, ptr %6, align 8, !tbaa !17
  store i64 %2, ptr %7, align 8, !tbaa !29
  call void @llvm.lifetime.start.p0(i64 8, ptr %8) #8
  store ptr null, ptr %8, align 8, !tbaa !6
  call void @llvm.lifetime.start.p0(i64 8, ptr %9) #8
  call void @llvm.lifetime.start.p0(i64 8, ptr %10) #8
  call void @llvm.lifetime.start.p0(i64 8, ptr %11) #8
  call void @llvm.lifetime.start.p0(i64 4, ptr %12) #8
  call void @llvm.lifetime.start.p0(i64 4, ptr %13) #8
  call void @llvm.lifetime.start.p0(i64 4, ptr %14) #8
  call void @llvm.lifetime.start.p0(i64 4, ptr %15) #8
  %17 = load ptr, ptr %5, align 8, !tbaa !27
  %18 = icmp eq ptr %17, null
  br i1 %18, label %23, label %19

19:                                               ; preds = %3
  %20 = load ptr, ptr %5, align 8, !tbaa !27
  %21 = load ptr, ptr %20, align 8, !tbaa !6
  %22 = icmp eq ptr %21, null
  br i1 %22, label %23, label %30

23:                                               ; preds = %19, %3
  %24 = call ptr @ASN1_STRING_type_new(i32 noundef 2)
  store ptr %24, ptr %8, align 8, !tbaa !6
  %25 = icmp eq ptr %24, null
  br i1 %25, label %26, label %27

26:                                               ; preds = %23
  store ptr null, ptr %4, align 8
  store i32 1, ptr %16, align 4
  br label %123

27:                                               ; preds = %23
  %28 = load ptr, ptr %8, align 8, !tbaa !6
  %29 = getelementptr inbounds nuw %struct.asn1_string_st, ptr %28, i32 0, i32 1
  store i32 2, ptr %29, align 4, !tbaa !11
  br label %33

30:                                               ; preds = %19
  %31 = load ptr, ptr %5, align 8, !tbaa !27
  %32 = load ptr, ptr %31, align 8, !tbaa !6
  store ptr %32, ptr %8, align 8, !tbaa !6
  br label %33

33:                                               ; preds = %30, %27
  %34 = load ptr, ptr %6, align 8, !tbaa !17
  %35 = load ptr, ptr %34, align 8, !tbaa !24
  store ptr %35, ptr %9, align 8, !tbaa !24
  %36 = load i64, ptr %7, align 8, !tbaa !29
  %37 = call i32 @ASN1_get_object(ptr noundef %9, ptr noundef %11, ptr noundef %13, ptr noundef %14, i64 noundef %36)
  store i32 %37, ptr %12, align 4, !tbaa !16
  %38 = load i32, ptr %12, align 4, !tbaa !16
  %39 = and i32 %38, 128
  %40 = icmp ne i32 %39, 0
  br i1 %40, label %41, label %42

41:                                               ; preds = %33
  store i32 103, ptr %15, align 4, !tbaa !16
  br label %108

42:                                               ; preds = %33
  %43 = load i32, ptr %13, align 4, !tbaa !16
  %44 = icmp ne i32 %43, 2
  br i1 %44, label %45, label %46

45:                                               ; preds = %42
  store i32 115, ptr %15, align 4, !tbaa !16
  br label %108

46:                                               ; preds = %42
  %47 = load i64, ptr %11, align 8, !tbaa !29
  %48 = trunc i64 %47 to i32
  %49 = add nsw i32 %48, 1
  %50 = sext i32 %49 to i64
  %51 = call noalias ptr @malloc(i64 noundef %50) #9
  store ptr %51, ptr %10, align 8, !tbaa !24
  %52 = load ptr, ptr %10, align 8, !tbaa !24
  %53 = icmp eq ptr %52, null
  br i1 %53, label %54, label %55

54:                                               ; preds = %46
  store i32 65, ptr %15, align 4, !tbaa !16
  br label %108

55:                                               ; preds = %46
  %56 = load ptr, ptr %8, align 8, !tbaa !6
  %57 = getelementptr inbounds nuw %struct.asn1_string_st, ptr %56, i32 0, i32 1
  store i32 2, ptr %57, align 4, !tbaa !11
  %58 = load i64, ptr %11, align 8, !tbaa !29
  %59 = icmp ne i64 %58, 0
  br i1 %59, label %60, label %82

60:                                               ; preds = %55
  %61 = load ptr, ptr %9, align 8, !tbaa !24
  %62 = load i8, ptr %61, align 1, !tbaa !19
  %63 = zext i8 %62 to i32
  %64 = icmp eq i32 %63, 0
  br i1 %64, label %65, label %73

65:                                               ; preds = %60
  %66 = load i64, ptr %11, align 8, !tbaa !29
  %67 = icmp ne i64 %66, 1
  br i1 %67, label %68, label %73

68:                                               ; preds = %65
  %69 = load ptr, ptr %9, align 8, !tbaa !24
  %70 = getelementptr inbounds nuw i8, ptr %69, i32 1
  store ptr %70, ptr %9, align 8, !tbaa !24
  %71 = load i64, ptr %11, align 8, !tbaa !29
  %72 = add nsw i64 %71, -1
  store i64 %72, ptr %11, align 8, !tbaa !29
  br label %73

73:                                               ; preds = %68, %65, %60
  %74 = load ptr, ptr %10, align 8, !tbaa !24
  %75 = load ptr, ptr %9, align 8, !tbaa !24
  %76 = load i64, ptr %11, align 8, !tbaa !29
  %77 = trunc i64 %76 to i32
  %78 = sext i32 %77 to i64
  call void @llvm.memcpy.p0.p0.i64(ptr align 1 %74, ptr align 1 %75, i64 %78, i1 false)
  %79 = load i64, ptr %11, align 8, !tbaa !29
  %80 = load ptr, ptr %9, align 8, !tbaa !24
  %81 = getelementptr inbounds i8, ptr %80, i64 %79
  store ptr %81, ptr %9, align 8, !tbaa !24
  br label %82

82:                                               ; preds = %73, %55
  %83 = load ptr, ptr %8, align 8, !tbaa !6
  %84 = getelementptr inbounds nuw %struct.asn1_string_st, ptr %83, i32 0, i32 2
  %85 = load ptr, ptr %84, align 8, !tbaa !21
  %86 = icmp ne ptr %85, null
  br i1 %86, label %87, label %91

87:                                               ; preds = %82
  %88 = load ptr, ptr %8, align 8, !tbaa !6
  %89 = getelementptr inbounds nuw %struct.asn1_string_st, ptr %88, i32 0, i32 2
  %90 = load ptr, ptr %89, align 8, !tbaa !21
  call void @free(ptr noundef %90) #8
  br label %91

91:                                               ; preds = %87, %82
  %92 = load ptr, ptr %10, align 8, !tbaa !24
  %93 = load ptr, ptr %8, align 8, !tbaa !6
  %94 = getelementptr inbounds nuw %struct.asn1_string_st, ptr %93, i32 0, i32 2
  store ptr %92, ptr %94, align 8, !tbaa !21
  %95 = load i64, ptr %11, align 8, !tbaa !29
  %96 = trunc i64 %95 to i32
  %97 = load ptr, ptr %8, align 8, !tbaa !6
  %98 = getelementptr inbounds nuw %struct.asn1_string_st, ptr %97, i32 0, i32 0
  store i32 %96, ptr %98, align 8, !tbaa !20
  %99 = load ptr, ptr %5, align 8, !tbaa !27
  %100 = icmp ne ptr %99, null
  br i1 %100, label %101, label %104

101:                                              ; preds = %91
  %102 = load ptr, ptr %8, align 8, !tbaa !6
  %103 = load ptr, ptr %5, align 8, !tbaa !27
  store ptr %102, ptr %103, align 8, !tbaa !6
  br label %104

104:                                              ; preds = %101, %91
  %105 = load ptr, ptr %9, align 8, !tbaa !24
  %106 = load ptr, ptr %6, align 8, !tbaa !17
  store ptr %105, ptr %106, align 8, !tbaa !24
  %107 = load ptr, ptr %8, align 8, !tbaa !6
  store ptr %107, ptr %4, align 8
  store i32 1, ptr %16, align 4
  br label %123

108:                                              ; preds = %54, %45, %41
  %109 = load i32, ptr %15, align 4, !tbaa !16
  call void @ERR_put_error(i32 noundef 12, i32 noundef 0, i32 noundef %109, ptr noundef @.str, i32 noundef 338)
  %110 = load ptr, ptr %8, align 8, !tbaa !6
  %111 = icmp ne ptr %110, null
  br i1 %111, label %112, label %122

112:                                              ; preds = %108
  %113 = load ptr, ptr %5, align 8, !tbaa !27
  %114 = icmp eq ptr %113, null
  br i1 %114, label %120, label %115

115:                                              ; preds = %112
  %116 = load ptr, ptr %5, align 8, !tbaa !27
  %117 = load ptr, ptr %116, align 8, !tbaa !6
  %118 = load ptr, ptr %8, align 8, !tbaa !6
  %119 = icmp ne ptr %117, %118
  br i1 %119, label %120, label %122

120:                                              ; preds = %115, %112
  %121 = load ptr, ptr %8, align 8, !tbaa !6
  call void @ASN1_STRING_free(ptr noundef %121)
  br label %122

122:                                              ; preds = %120, %115, %108
  store ptr null, ptr %4, align 8
  store i32 1, ptr %16, align 4
  br label %123

123:                                              ; preds = %122, %104, %26
  call void @llvm.lifetime.end.p0(i64 4, ptr %15) #8
  call void @llvm.lifetime.end.p0(i64 4, ptr %14) #8
  call void @llvm.lifetime.end.p0(i64 4, ptr %13) #8
  call void @llvm.lifetime.end.p0(i64 4, ptr %12) #8
  call void @llvm.lifetime.end.p0(i64 8, ptr %11) #8
  call void @llvm.lifetime.end.p0(i64 8, ptr %10) #8
  call void @llvm.lifetime.end.p0(i64 8, ptr %9) #8
  call void @llvm.lifetime.end.p0(i64 8, ptr %8) #8
  %124 = load ptr, ptr %4, align 8
  ret ptr %124
}