; Function Attrs: nounwind uwtable
define hidden ptr @d2i_ASN1_UINTEGER(ptr noundef captures(address_is_null) %0, ptr noundef captures(none) %1, i64 noundef %2) local_unnamed_addr #0 {
  %4 = alloca ptr, align 8
  %5 = alloca i64, align 8
  %6 = alloca i32, align 4
  %7 = alloca i32, align 4
  call void @llvm.lifetime.start.p0(i64 8, ptr nonnull %4) #10
  call void @llvm.lifetime.start.p0(i64 8, ptr nonnull %5) #10
  call void @llvm.lifetime.start.p0(i64 4, ptr nonnull %6) #10
  call void @llvm.lifetime.start.p0(i64 4, ptr nonnull %7) #10
  %8 = icmp eq ptr %0, null
  br i1 %8, label %12, label %9

9:                                                ; preds = %3
  %10 = load ptr, ptr %0, align 8, !tbaa !22
  %11 = icmp eq ptr %10, null
  br i1 %11, label %12, label %17

12:                                               ; preds = %9, %3
  %13 = tail call ptr @ASN1_STRING_type_new(i32 noundef 2) #10
  %14 = icmp eq ptr %13, null
  br i1 %14, label %59, label %15

15:                                               ; preds = %12
  %16 = getelementptr inbounds nuw i8, ptr %13, i64 4
  store i32 2, ptr %16, align 4, !tbaa !6
  br label %17

17:                                               ; preds = %9, %15
  %.028 = phi ptr [ %13, %15 ], [ %10, %9 ]
  %18 = load ptr, ptr %1, align 8, !tbaa !19
  store ptr %18, ptr %4, align 8, !tbaa !19
  %19 = call i32 @ASN1_get_object(ptr noundef nonnull %4, ptr noundef nonnull %5, ptr noundef nonnull %6, ptr noundef nonnull %7, i64 noundef %2) #10
  %20 = and i32 %19, 128
  %.not = icmp eq i32 %20, 0
  br i1 %.not, label %21, label %55

21:                                               ; preds = %17
  %22 = load i32, ptr %6, align 4, !tbaa !26
  %.not35 = icmp eq i32 %22, 2
  br i1 %.not35, label %23, label %55

23:                                               ; preds = %21
  %24 = load i64, ptr %5, align 8, !tbaa !27
  %25 = shl i64 %24, 32
  %sext = add i64 %25, 4294967296
  %26 = ashr exact i64 %sext, 32
  %27 = call noalias ptr @malloc(i64 noundef %26) #11
  %28 = icmp eq ptr %27, null
  br i1 %28, label %55, label %29

29:                                               ; preds = %23
  %30 = getelementptr inbounds nuw i8, ptr %.028, i64 4
  store i32 2, ptr %30, align 4, !tbaa !6
  %.not36 = icmp eq i64 %24, 0
  br i1 %.not36, label %44, label %31

31:                                               ; preds = %29
  %32 = load ptr, ptr %4, align 8, !tbaa !19
  %33 = load i8, ptr %32, align 1, !tbaa !16
  %34 = icmp eq i8 %33, 0
  %35 = icmp ne i64 %24, 1
  %or.cond = and i1 %35, %34
  br i1 %or.cond, label %36, label %39

36:                                               ; preds = %31
  %37 = getelementptr inbounds nuw i8, ptr %32, i64 1
  store ptr %37, ptr %4, align 8, !tbaa !19
  %38 = add nsw i64 %24, -1
  store i64 %38, ptr %5, align 8, !tbaa !27
  %.pre41 = shl i64 %38, 32
  br label %39

39:                                               ; preds = %36, %31
  %sext37.pre-phi = phi i64 [ %.pre41, %36 ], [ %25, %31 ]
  %40 = phi i64 [ %38, %36 ], [ %24, %31 ]
  %41 = phi ptr [ %37, %36 ], [ %32, %31 ]
  %42 = ashr exact i64 %sext37.pre-phi, 32
  call void @llvm.memcpy.p0.p0.i64(ptr nonnull align 1 %27, ptr nonnull align 1 %41, i64 %42, i1 false)
  %43 = getelementptr inbounds i8, ptr %41, i64 %40
  store ptr %43, ptr %4, align 8, !tbaa !19
  br label %44

44:                                               ; preds = %39, %29
  %45 = phi i64 [ %40, %39 ], [ 0, %29 ]
  %46 = getelementptr inbounds nuw i8, ptr %.028, i64 8
  %47 = load ptr, ptr %46, align 8, !tbaa !15
  %.not38 = icmp eq ptr %47, null
  br i1 %.not38, label %49, label %48

48:                                               ; preds = %44
  call void @free(ptr noundef nonnull %47) #10
  %.pre = load i64, ptr %5, align 8, !tbaa !27
  br label %49

49:                                               ; preds = %48, %44
  %50 = phi i64 [ %.pre, %48 ], [ %45, %44 ]
  store ptr %27, ptr %46, align 8, !tbaa !15
  %51 = trunc i64 %50 to i32
  store i32 %51, ptr %.028, align 8, !tbaa !14
  br i1 %8, label %53, label %52

52:                                               ; preds = %49
  store ptr %.028, ptr %0, align 8, !tbaa !22
  br label %53

53:                                               ; preds = %52, %49
  %54 = load ptr, ptr %4, align 8, !tbaa !19
  store ptr %54, ptr %1, align 8, !tbaa !19
  br label %59

55:                                               ; preds = %23, %21, %17
  %.0 = phi i32 [ 103, %17 ], [ 115, %21 ], [ 65, %23 ]
  call void @ERR_put_error(i32 noundef 12, i32 noundef 0, i32 noundef %.0, ptr noundef nonnull @.str, i32 noundef 338) #10
  br i1 %8, label %58, label %56

56:                                               ; preds = %55
  %57 = load ptr, ptr %0, align 8, !tbaa !22
  %.not40 = icmp eq ptr %57, %.028
  br i1 %.not40, label %59, label %58

58:                                               ; preds = %56, %55
  call void @ASN1_STRING_free(ptr noundef nonnull %.028) #10
  br label %59

59:                                               ; preds = %56, %58, %12, %53
  %.027 = phi ptr [ %.028, %53 ], [ null, %12 ], [ null, %58 ], [ null, %56 ]
  call void @llvm.lifetime.end.p0(i64 4, ptr nonnull %7) #10
  call void @llvm.lifetime.end.p0(i64 4, ptr nonnull %6) #10
  call void @llvm.lifetime.end.p0(i64 8, ptr nonnull %5) #10
  call void @llvm.lifetime.end.p0(i64 8, ptr nonnull %4) #10
  ret ptr %.027
}